target datalayout = "e-m:e-p270:32:32-p271:32:32-p272:64:64-i64:64-i128:128-f80:128-n8:16:32:64-S128"
target triple = "x86_64-pc-linux-gnu"

@proto_register_acr122.ett = internal global [5 x ptr] [ptr @ett_acr122, ptr @ett_p1_item, ptr @ett_p2_item, ptr @ett_status_word, ptr @ett_status_word_sw2], align 16
@command_info = internal global ptr null, align 8
@.str.106 = private unnamed_addr constant [29 x i8] c"Advanced Card Systems ACR122\00", align 1
@.str.107 = private unnamed_addr constant [8 x i8] c"ACR 122\00", align 1
@.str.108 = private unnamed_addr constant [7 x i8] c"acr122\00", align 1
@proto_acr122 = internal global i32 0, align 4
@acr122_handle = internal global ptr null, align 8
@.str.109 = private unnamed_addr constant [8 x i8] c"version\00", align 1
@.str.110 = private unnamed_addr constant [65 x i8] c"ACR122U USB NFC Reader - Application Programming Interface V2.02\00", align 1
@.str.111 = private unnamed_addr constant [49 x i8] c"Version of protocol supported by this dissector.\00", align 1

; Function Attrs: null_pointer_is_valid sspstrong uwtable
define hidden void @proto_register_acr122() #0 {
  %1 = alloca ptr, align 8
  %2 = alloca ptr, align 8
  call void @llvm.lifetime.start.p0(i64 8, ptr %1) #6
  call void @llvm.lifetime.start.p0(i64 8, ptr %2) #6
  %3 = call ptr @wmem_epan_scope()
  %4 = call ptr @wmem_file_scope()
  %5 = call noalias ptr @wmem_tree_new_autoreset(ptr noundef %3, ptr noundef %4)
  store ptr %5, ptr @command_info, align 8
  %6 = call i32 @proto_register_protocol(ptr noundef @.str.106, ptr noundef @.str.107, ptr noundef @.str.108)
  store i32 %6, ptr @proto_acr122, align 4
  %7 = load i32, ptr @proto_acr122, align 4
  %8 = call ptr @register_dissector(ptr noundef @.str.108, ptr noundef @dissect_acr122, i32 noundef %7)
  store ptr %8, ptr @acr122_handle, align 8
  %9 = load i32, ptr @proto_acr122, align 4
  call void @proto_register_field_array(i32 noundef %9, ptr noundef @proto_register_acr122.hf, i32 noundef 51)
  call void @proto_register_subtree_array(ptr noundef @proto_register_acr122.ett, i32 noundef 5)
  %10 = load i32, ptr @proto_acr122, align 4
  %11 = call ptr @expert_register_protocol(i32 noundef %10)
  store ptr %11, ptr %2, align 8
  %12 = load ptr, ptr %2, align 8
  call void @expert_register_field_array(ptr noundef %12, ptr noundef @proto_register_acr122.ei, i32 noundef 1)
  %13 = load i32, ptr @proto_acr122, align 4
  %14 = call ptr @prefs_register_protocol(i32 noundef %13, ptr noundef null)
  store ptr %14, ptr %1, align 8
  %15 = load ptr, ptr %1, align 8
  call void @prefs_register_static_text_preference(ptr noundef %15, ptr noundef @.str.109, ptr noundef @.str.110, ptr noundef @.str.111)
  call void @llvm.lifetime.end.p0(i64 8, ptr %2) #6
  call void @llvm.lifetime.end.p0(i64 8, ptr %1) #6
  ret void
}