; Function Attrs: null_pointer_is_valid sspstrong uwtable
define hidden void @proto_register_acr122() local_unnamed_addr #0 {
  %1 = tail call ptr @wmem_epan_scope()
  %2 = tail call ptr @wmem_file_scope()
  %3 = tail call noalias ptr @wmem_tree_new_autoreset(ptr noundef %1, ptr noundef %2)
  store ptr %3, ptr @command_info, align 8
  %4 = tail call i32 @proto_register_protocol(ptr noundef nonnull @.str.106, ptr noundef nonnull @.str.107, ptr noundef nonnull @.str.108)
  store i32 %4, ptr @proto_acr122, align 4
  %5 = tail call ptr @register_dissector(ptr noundef nonnull @.str.108, ptr noundef nonnull @dissect_acr122, i32 noundef %4)
  store ptr %5, ptr @acr122_handle, align 8
  %6 = load i32, ptr @proto_acr122, align 4
  tail call void @proto_register_field_array(i32 noundef %6, ptr noundef nonnull @proto_register_acr122.hf, i32 noundef 51)
  tail call void @proto_register_subtree_array(ptr noundef nonnull @proto_register_acr122.ett, i32 noundef 5)
  %7 = load i32, ptr @proto_acr122, align 4
  %8 = tail call ptr @expert_register_protocol(i32 noundef %7)
  tail call void @expert_register_field_array(ptr noundef %8, ptr noundef nonnull @proto_register_acr122.ei, i32 noundef 1)
  %9 = load i32, ptr @proto_acr122, align 4
  %10 = tail call ptr @prefs_register_protocol(i32 noundef %9, ptr noundef null)
  tail call void @prefs_register_static_text_preference(ptr noundef %10, ptr noundef nonnull @.str.109, ptr noundef nonnull @.str.110, ptr noundef nonnull @.str.111)
  ret void
}